; Function Attrs: mustprogress nofree norecurse nosync nounwind willreturn memory(readwrite, inaccessiblemem: none) uwtable
define hidden void @_ZN6hermes3sem17SemanticValidator27tryOverrideSourceVisibilityENS_16SourceVisibilityE(ptr noundef nonnull readonly align 8 captures(none) dereferenceable(168) %this, i32 noundef %newSourceVisibility) local_unnamed_addr #7 align 2 {
entry:
  %funcCtx_.i = getelementptr inbounds nuw i8, ptr %this, i64 152
  %0 = load ptr, ptr %funcCtx_.i, align 8
  %sourceVisibility = getelementptr inbounds nuw i8, ptr %0, i64 84
  %1 = load i32, ptr %sourceVisibility, align 4
  %cmp = icmp sgt i32 %newSourceVisibility, %1
  br i1 %cmp, label %if.then, label %if.end

if.then:                                          ; preds = %entry
  store i32 %newSourceVisibility, ptr %sourceVisibility, align 4
  br label %if.end

if.end:                                           ; preds = %if.then, %entry
  ret void
}